target datalayout = "e-m:e-p270:32:32-p271:32:32-p272:64:64-i64:64-i128:128-f80:128-n8:16:32:64-S128"
target triple = "x86_64-pc-linux-gnu"

%struct.luaL_Buffer = type { ptr, i32, ptr, [8192 x i8] }

; Function Attrs: nounwind uwtable
define internal i32 @emptybuffer(ptr noundef %0) #0 {
  %2 = alloca i32, align 4
  %3 = alloca ptr, align 8
  %4 = alloca i64, align 8
  %5 = alloca i32, align 4
  store ptr %0, ptr %3, align 8, !tbaa !57
  call void @llvm.lifetime.start.p0(i64 8, ptr %4) #9
  %6 = load ptr, ptr %3, align 8, !tbaa !57
  %7 = getelementptr inbounds nuw %struct.luaL_Buffer, ptr %6, i32 0, i32 0
  %8 = load ptr, ptr %7, align 8, !tbaa !61
  %9 = load ptr, ptr %3, align 8, !tbaa !57
  %10 = getelementptr inbounds nuw %struct.luaL_Buffer, ptr %9, i32 0, i32 3
  %11 = getelementptr inbounds [8192 x i8], ptr %10, i64 0, i64 0
  %12 = ptrtoint ptr %8 to i64
  %13 = ptrtoint ptr %11 to i64
  %14 = sub i64 %12, %13
  store i64 %14, ptr %4, align 8, !tbaa !55
  %15 = load i64, ptr %4, align 8, !tbaa !55
  %16 = icmp eq i64 %15, 0
  br i1 %16, label %17, label %18

17:                                               ; preds = %1
  store i32 0, ptr %2, align 4
  store i32 1, ptr %5, align 4
  br label %35

18:                                               ; preds = %1
  %19 = load ptr, ptr %3, align 8, !tbaa !57
  %20 = getelementptr inbounds nuw %struct.luaL_Buffer, ptr %19, i32 0, i32 2
  %21 = load ptr, ptr %20, align 8, !tbaa !59
  %22 = load ptr, ptr %3, align 8, !tbaa !57
  %23 = getelementptr inbounds nuw %struct.luaL_Buffer, ptr %22, i32 0, i32 3
  %24 = getelementptr inbounds [8192 x i8], ptr %23, i64 0, i64 0
  %25 = load i64, ptr %4, align 8, !tbaa !55
  call void @lua_pushlstring(ptr noundef %21, ptr noundef %24, i64 noundef %25)
  %26 = load ptr, ptr %3, align 8, !tbaa !57
  %27 = getelementptr inbounds nuw %struct.luaL_Buffer, ptr %26, i32 0, i32 3
  %28 = getelementptr inbounds [8192 x i8], ptr %27, i64 0, i64 0
  %29 = load ptr, ptr %3, align 8, !tbaa !57
  %30 = getelementptr inbounds nuw %struct.luaL_Buffer, ptr %29, i32 0, i32 0
  store ptr %28, ptr %30, align 8, !tbaa !61
  %31 = load ptr, ptr %3, align 8, !tbaa !57
  %32 = getelementptr inbounds nuw %struct.luaL_Buffer, ptr %31, i32 0, i32 1
  %33 = load i32, ptr %32, align 8, !tbaa !62
  %34 = add nsw i32 %33, 1
  store i32 %34, ptr %32, align 8, !tbaa !62
  store i32 1, ptr %2, align 4
  store i32 1, ptr %5, align 4
  br label %35

35:                                               ; preds = %18, %17
  call void @llvm.lifetime.end.p0(i64 8, ptr %4) #9
  %36 = load i32, ptr %2, align 4
  ret i32 %36
}

; Function Attrs: nounwind uwtable
define dso_local void @luaL_pushresult(ptr noundef %0) #0 {
  %2 = alloca ptr, align 8
  store ptr %0, ptr %2, align 8, !tbaa !57
  %3 = load ptr, ptr %2, align 8, !tbaa !57
  %4 = call i32 @emptybuffer(ptr noundef %3)
  %5 = load ptr, ptr %2, align 8, !tbaa !57
  %6 = getelementptr inbounds nuw %struct.luaL_Buffer, ptr %5, i32 0, i32 2
  %7 = load ptr, ptr %6, align 8, !tbaa !59
  %8 = load ptr, ptr %2, align 8, !tbaa !57
  %9 = getelementptr inbounds nuw %struct.luaL_Buffer, ptr %8, i32 0, i32 1
  %10 = load i32, ptr %9, align 8, !tbaa !62
  call void @lua_concat(ptr noundef %7, i32 noundef %10)
  %11 = load ptr, ptr %2, align 8, !tbaa !57
  %12 = getelementptr inbounds nuw %struct.luaL_Buffer, ptr %11, i32 0, i32 1
  store i32 1, ptr %12, align 8, !tbaa !62
  ret void
}