; Function Attrs: nounwind uwtable
define dso_local void @luaL_pushresult(ptr noundef %0) local_unnamed_addr #0 {
  %2 = load ptr, ptr %0, align 8, !tbaa !51
  %3 = getelementptr inbounds nuw i8, ptr %0, i64 24
  %4 = icmp eq ptr %2, %3
  br i1 %4, label %.emptybuffer.exit_crit_edge, label %5

.emptybuffer.exit_crit_edge:                      ; preds = %1
  %.phi.trans.insert = getelementptr inbounds nuw i8, ptr %0, i64 8
  %.pre = load i32, ptr %.phi.trans.insert, align 8, !tbaa !52
  br label %emptybuffer.exit

5:                                                ; preds = %1
  %6 = ptrtoint ptr %3 to i64
  %7 = ptrtoint ptr %2 to i64
  %8 = sub i64 %7, %6
  %9 = getelementptr inbounds nuw i8, ptr %0, i64 16
  %10 = load ptr, ptr %9, align 8, !tbaa !49
  tail call void @lua_pushlstring(ptr noundef %10, ptr noundef nonnull %3, i64 noundef %8) #13
  store ptr %3, ptr %0, align 8, !tbaa !51
  %11 = getelementptr inbounds nuw i8, ptr %0, i64 8
  %12 = load i32, ptr %11, align 8, !tbaa !52
  %13 = add nsw i32 %12, 1
  store i32 %13, ptr %11, align 8, !tbaa !52
  br label %emptybuffer.exit

emptybuffer.exit:                                 ; preds = %.emptybuffer.exit_crit_edge, %5
  %14 = phi i32 [ %.pre, %.emptybuffer.exit_crit_edge ], [ %13, %5 ]
  %15 = getelementptr inbounds nuw i8, ptr %0, i64 16
  %16 = load ptr, ptr %15, align 8, !tbaa !49
  %17 = getelementptr inbounds nuw i8, ptr %0, i64 8
  tail call void @lua_concat(ptr noundef %16, i32 noundef %14) #13
  store i32 1, ptr %17, align 8, !tbaa !52
  ret void
}